target datalayout = "e-m:e-p270:32:32-p271:32:32-p272:64:64-i64:64-i128:128-f80:128-n8:16:32:64-S128"
target triple = "x86_64-pc-linux-gnu"

%struct.H5D_farray_filt_elmt_t = type { i64, i32, i32 }
%struct.H5D_chk_idx_info_t = type { ptr, ptr, ptr, ptr }
%struct.H5O_storage_chunk_t = type { i32, i64, ptr, %union.anon.4 }
%union.anon.4 = type { %struct.H5O_storage_chunk_btree_t }
%struct.H5O_storage_chunk_btree_t = type { i64, ptr }
%struct.H5O_storage_chunk_farray_t = type { i64, ptr }
%struct.H5O_pline_t = type { %struct.H5O_shared_t, i32, i64, i64, ptr }
%struct.H5O_shared_t = type { i32, ptr, i32, %union.anon.5 }
%union.anon.5 = type { %struct.H5O_mesg_loc_t }
%struct.H5O_mesg_loc_t = type { i32, i64 }
%struct.H5O_layout_chunk_t = type { i32, i8, i32, [33 x i32], i32, i32, i64, i64, [33 x i64], [33 x i64], [33 x i64], [33 x i64], %union.anon.0 }
%union.anon.0 = type { %struct.H5O_layout_chunk_earray_t }
%struct.H5O_layout_chunk_earray_t = type { %struct.anon.1, i32, [33 x i32], [33 x i64], [33 x i64] }
%struct.anon.1 = type { i8, i8, i8, i8, i8 }
%struct.H5O_storage_chunk_bt2_t = type { i64, ptr }
%struct.H5D_chunk_common_ud_t = type { ptr, ptr, ptr }

@.str.2 = private unnamed_addr constant [103 x i8] c"generated/home/dtcxzyw/WorkSpace/Projects/compilers/llvm-opt-benchmark/bench/hdf5/hdf5/src/H5Dfarray.c\00", align 1
@H5E_DATASET_g = external global i64, align 8
@H5E_CANTOPENOBJ_g = external global i64, align 8
@H5E_CANTGET_g = external global i64, align 8
@.str.20 = private unnamed_addr constant [23 x i8] c"can't open fixed array\00", align 1
@H5E_CANTSET_g = external global i64, align 8
@.str.26 = private unnamed_addr constant [21 x i8] c"can't get chunk info\00", align 1
@.str.27 = private unnamed_addr constant [24 x i8] c"can't get chunk address\00", align 1
@__func__.H5D__farray_idx_remove = private unnamed_addr constant [23 x i8] c"H5D__farray_idx_remove\00", align 1
@.str.32 = private unnamed_addr constant [37 x i8] c"can't patch fixed array file pointer\00", align 1
@H5E_CANTFREE_g = external global i64, align 8
@.str.33 = private unnamed_addr constant [21 x i8] c"unable to free chunk\00", align 1
@.str.34 = private unnamed_addr constant [27 x i8] c"unable to reset chunk info\00", align 1
@.str.35 = private unnamed_addr constant [30 x i8] c"unable to reset chunk address\00", align 1

; Function Attrs: nounwind uwtable
define internal i32 @H5D__farray_idx_remove(ptr noundef %0, ptr noundef %1) #0 {
  %3 = alloca ptr, align 8
  %4 = alloca ptr, align 8
  %5 = alloca ptr, align 8
  %6 = alloca i64, align 8
  %7 = alloca i32, align 4
  %8 = alloca i8, align 1
  %9 = alloca %struct.H5D_farray_filt_elmt_t, align 8
  %10 = alloca i64, align 8
  store ptr %0, ptr %3, align 8
  store ptr %1, ptr %4, align 8
  store i32 0, ptr %7, align 4
  store i8 0, ptr %8, align 1
  %11 = load ptr, ptr %3, align 8
  %12 = getelementptr inbounds %struct.H5D_chk_idx_info_t, ptr %11, i32 0, i32 3
  %13 = load ptr, ptr %12, align 8
  %14 = getelementptr inbounds %struct.H5O_storage_chunk_t, ptr %13, i32 0, i32 3
  %15 = getelementptr inbounds %struct.H5O_storage_chunk_bt2_t, ptr %14, i32 0, i32 1
  %16 = load ptr, ptr %15, align 8
  %17 = icmp ne ptr null, %16
  br i1 %17, label %38, label %18

18:                                               ; preds = %2
  %19 = load ptr, ptr %3, align 8
  %20 = call i32 @H5D__farray_idx_open(ptr noundef %19)
  %21 = icmp slt i32 %20, 0
  br i1 %21, label %22, label %37

22:                                               ; preds = %18
  br label %23

23:                                               ; preds = %22
  br label %24

24:                                               ; preds = %23
  br label %25

25:                                               ; preds = %24
  %26 = load i64, ptr @H5E_DATASET_g, align 8
  %27 = load i64, ptr @H5E_CANTOPENOBJ_g, align 8
  %28 = call i32 (ptr, ptr, i32, i64, i64, ptr, ...) @H5E_printf_stack(ptr noundef @.str.2, ptr noundef @__func__.H5D__farray_idx_remove, i32 noundef 1284, i64 noundef %26, i64 noundef %27, ptr noundef @.str.20)
  br label %29

29:                                               ; preds = %25
  store i8 1, ptr %8, align 1
  %30 = load i8, ptr %8, align 1
  %31 = trunc i8 %30 to i1
  %32 = zext i1 %31 to i8
  store i8 %32, ptr %8, align 1
  br label %33

33:                                               ; preds = %29
  br label %34

34:                                               ; preds = %33
  store i32 -1, ptr %7, align 4
  br label %250

35:                                               ; No predecessors!
  br label %36

36:                                               ; preds = %35
  br label %37

37:                                               ; preds = %36, %18
  br label %66

38:                                               ; preds = %2
  %39 = load ptr, ptr %3, align 8
  %40 = getelementptr inbounds %struct.H5D_chk_idx_info_t, ptr %39, i32 0, i32 3
  %41 = load ptr, ptr %40, align 8
  %42 = getelementptr inbounds %struct.H5O_storage_chunk_t, ptr %41, i32 0, i32 3
  %43 = getelementptr inbounds %struct.H5O_storage_chunk_farray_t, ptr %42, i32 0, i32 1
  %44 = load ptr, ptr %43, align 8
  %45 = load ptr, ptr %3, align 8
  %46 = getelementptr inbounds %struct.H5D_chk_idx_info_t, ptr %45, i32 0, i32 0
  %47 = load ptr, ptr %46, align 8
  %48 = call i32 @H5FA_patch_file(ptr noundef %44, ptr noundef %47)
  %49 = icmp slt i32 %48, 0
  br i1 %49, label %50, label %65

50:                                               ; preds = %38
  br label %51

51:                                               ; preds = %50
  br label %52

52:                                               ; preds = %51
  br label %53

53:                                               ; preds = %52
  %54 = load i64, ptr @H5E_DATASET_g, align 8
  %55 = load i64, ptr @H5E_CANTOPENOBJ_g, align 8
  %56 = call i32 (ptr, ptr, i32, i64, i64, ptr, ...) @H5E_printf_stack(ptr noundef @.str.2, ptr noundef @__func__.H5D__farray_idx_remove, i32 noundef 1288, i64 noundef %54, i64 noundef %55, ptr noundef @.str.32)
  br label %57

57:                                               ; preds = %53
  store i8 1, ptr %8, align 1
  %58 = load i8, ptr %8, align 1
  %59 = trunc i8 %58 to i1
  %60 = zext i1 %59 to i8
  store i8 %60, ptr %8, align 1
  br label %61

61:                                               ; preds = %57
  br label %62

62:                                               ; preds = %61
  store i32 -1, ptr %7, align 4
  br label %250

63:                                               ; No predecessors!
  br label %64

64:                                               ; preds = %63
  br label %65

65:                                               ; preds = %64, %38
  br label %66

66:                                               ; preds = %65, %37
  %67 = load ptr, ptr %3, align 8
  %68 = getelementptr inbounds %struct.H5D_chk_idx_info_t, ptr %67, i32 0, i32 3
  %69 = load ptr, ptr %68, align 8
  %70 = getelementptr inbounds %struct.H5O_storage_chunk_t, ptr %69, i32 0, i32 3
  %71 = getelementptr inbounds %struct.H5O_storage_chunk_farray_t, ptr %70, i32 0, i32 1
  %72 = load ptr, ptr %71, align 8
  store ptr %72, ptr %5, align 8
  %73 = load ptr, ptr %3, align 8
  %74 = getelementptr inbounds %struct.H5D_chk_idx_info_t, ptr %73, i32 0, i32 2
  %75 = load ptr, ptr %74, align 8
  %76 = getelementptr inbounds %struct.H5O_layout_chunk_t, ptr %75, i32 0, i32 2
  %77 = load i32, ptr %76, align 8
  %78 = sub i32 %77, 1
  %79 = load ptr, ptr %3, align 8
  %80 = getelementptr inbounds %struct.H5D_chk_idx_info_t, ptr %79, i32 0, i32 2
  %81 = load ptr, ptr %80, align 8
  %82 = getelementptr inbounds %struct.H5O_layout_chunk_t, ptr %81, i32 0, i32 11
  %83 = getelementptr inbounds [33 x i64], ptr %82, i64 0, i64 0
  %84 = load ptr, ptr %4, align 8
  %85 = getelementptr inbounds %struct.H5D_chunk_common_ud_t, ptr %84, i32 0, i32 2
  %86 = load ptr, ptr %85, align 8
  %87 = call i64 @H5VM_array_offset_pre(i32 noundef %78, ptr noundef %83, ptr noundef %86)
  store i64 %87, ptr %6, align 8
  %88 = load ptr, ptr %3, align 8
  %89 = getelementptr inbounds %struct.H5D_chk_idx_info_t, ptr %88, i32 0, i32 1
  %90 = load ptr, ptr %89, align 8
  %91 = getelementptr inbounds %struct.H5O_pline_t, ptr %90, i32 0, i32 3
  %92 = load i64, ptr %91, align 8
  %93 = icmp ugt i64 %92, 0
  br i1 %93, label %94, label %172

94:                                               ; preds = %66
  %95 = load ptr, ptr %5, align 8
  %96 = load i64, ptr %6, align 8
  %97 = call i32 @H5FA_get(ptr noundef %95, i64 noundef %96, ptr noundef %9)
  %98 = icmp slt i32 %97, 0
  br i1 %98, label %99, label %114

99:                                               ; preds = %94
  br label %100

100:                                              ; preds = %99
  br label %101

101:                                              ; preds = %100
  br label %102

102:                                              ; preds = %101
  %103 = load i64, ptr @H5E_DATASET_g, align 8
  %104 = load i64, ptr @H5E_CANTGET_g, align 8
  %105 = call i32 (ptr, ptr, i32, i64, i64, ptr, ...) @H5E_printf_stack(ptr noundef @.str.2, ptr noundef @__func__.H5D__farray_idx_remove, i32 noundef 1303, i64 noundef %103, i64 noundef %104, ptr noundef @.str.26)
  br label %106

106:                                              ; preds = %102
  store i8 1, ptr %8, align 1
  %107 = load i8, ptr %8, align 1
  %108 = trunc i8 %107 to i1
  %109 = zext i1 %108 to i8
  store i8 %109, ptr %8, align 1
  br label %110

110:                                              ; preds = %106
  br label %111

111:                                              ; preds = %110
  store i32 -1, ptr %7, align 4
  br label %250

112:                                              ; No predecessors!
  br label %113

113:                                              ; preds = %112
  br label %114

114:                                              ; preds = %113, %94
  %115 = load ptr, ptr %3, align 8
  %116 = getelementptr inbounds %struct.H5D_chk_idx_info_t, ptr %115, i32 0, i32 0
  %117 = load ptr, ptr %116, align 8
  %118 = call i32 @H5F_get_intent(ptr noundef %117)
  %119 = and i32 %118, 32
  %120 = icmp ne i32 %119, 0
  br i1 %120, label %148, label %121

121:                                              ; preds = %114
  %122 = load ptr, ptr %3, align 8
  %123 = getelementptr inbounds %struct.H5D_chk_idx_info_t, ptr %122, i32 0, i32 0
  %124 = load ptr, ptr %123, align 8
  %125 = getelementptr inbounds %struct.H5D_farray_filt_elmt_t, ptr %9, i32 0, i32 0
  %126 = load i64, ptr %125, align 8
  %127 = getelementptr inbounds %struct.H5D_farray_filt_elmt_t, ptr %9, i32 0, i32 1
  %128 = load i32, ptr %127, align 8
  %129 = zext i32 %128 to i64
  %130 = call i32 @H5MF_xfree(ptr noundef %124, i32 noundef 3, i64 noundef %126, i64 noundef %129)
  %131 = icmp slt i32 %130, 0
  br i1 %131, label %132, label %147

132:                                              ; preds = %121
  br label %133

133:                                              ; preds = %132
  br label %134

134:                                              ; preds = %133
  br label %135

135:                                              ; preds = %134
  %136 = load i64, ptr @H5E_DATASET_g, align 8
  %137 = load i64, ptr @H5E_CANTFREE_g, align 8
  %138 = call i32 (ptr, ptr, i32, i64, i64, ptr, ...) @H5E_printf_stack(ptr noundef @.str.2, ptr noundef @__func__.H5D__farray_idx_remove, i32 noundef 1310, i64 noundef %136, i64 noundef %137, ptr noundef @.str.33)
  br label %139

139:                                              ; preds = %135
  store i8 1, ptr %8, align 1
  %140 = load i8, ptr %8, align 1
  %141 = trunc i8 %140 to i1
  %142 = zext i1 %141 to i8
  store i8 %142, ptr %8, align 1
  br label %143

143:                                              ; preds = %139
  br label %144

144:                                              ; preds = %143
  store i32 -1, ptr %7, align 4
  br label %250

145:                                              ; No predecessors!
  br label %146

146:                                              ; preds = %145
  br label %147

147:                                              ; preds = %146, %121
  br label %148

148:                                              ; preds = %147, %114
  %149 = getelementptr inbounds %struct.H5D_farray_filt_elmt_t, ptr %9, i32 0, i32 0
  store i64 -1, ptr %149, align 8
  %150 = getelementptr inbounds %struct.H5D_farray_filt_elmt_t, ptr %9, i32 0, i32 1
  store i32 0, ptr %150, align 8
  %151 = getelementptr inbounds %struct.H5D_farray_filt_elmt_t, ptr %9, i32 0, i32 2
  store i32 0, ptr %151, align 4
  %152 = load ptr, ptr %5, align 8
  %153 = load i64, ptr %6, align 8
  %154 = call i32 @H5FA_set(ptr noundef %152, i64 noundef %153, ptr noundef %9)
  %155 = icmp slt i32 %154, 0
  br i1 %155, label %156, label %171

156:                                              ; preds = %148
  br label %157

157:                                              ; preds = %156
  br label %158

158:                                              ; preds = %157
  br label %159

159:                                              ; preds = %158
  %160 = load i64, ptr @H5E_DATASET_g, align 8
  %161 = load i64, ptr @H5E_CANTSET_g, align 8
  %162 = call i32 (ptr, ptr, i32, i64, i64, ptr, ...) @H5E_printf_stack(ptr noundef @.str.2, ptr noundef @__func__.H5D__farray_idx_remove, i32 noundef 1318, i64 noundef %160, i64 noundef %161, ptr noundef @.str.34)
  br label %163

163:                                              ; preds = %159
  store i8 1, ptr %8, align 1
  %164 = load i8, ptr %8, align 1
  %165 = trunc i8 %164 to i1
  %166 = zext i1 %165 to i8
  store i8 %166, ptr %8, align 1
  br label %167

167:                                              ; preds = %163
  br label %168

168:                                              ; preds = %167
  store i32 -1, ptr %7, align 4
  br label %250

169:                                              ; No predecessors!
  br label %170

170:                                              ; preds = %169
  br label %171

171:                                              ; preds = %170, %148
  br label %249

172:                                              ; preds = %66
  store i64 -1, ptr %10, align 8
  %173 = load ptr, ptr %5, align 8
  %174 = load i64, ptr %6, align 8
  %175 = call i32 @H5FA_get(ptr noundef %173, i64 noundef %174, ptr noundef %10)
  %176 = icmp slt i32 %175, 0
  br i1 %176, label %177, label %192

177:                                              ; preds = %172
  br label %178

178:                                              ; preds = %177
  br label %179

179:                                              ; preds = %178
  br label %180

180:                                              ; preds = %179
  %181 = load i64, ptr @H5E_DATASET_g, align 8
  %182 = load i64, ptr @H5E_CANTGET_g, align 8
  %183 = call i32 (ptr, ptr, i32, i64, i64, ptr, ...) @H5E_printf_stack(ptr noundef @.str.2, ptr noundef @__func__.H5D__farray_idx_remove, i32 noundef 1325, i64 noundef %181, i64 noundef %182, ptr noundef @.str.27)
  br label %184

184:                                              ; preds = %180
  store i8 1, ptr %8, align 1
  %185 = load i8, ptr %8, align 1
  %186 = trunc i8 %185 to i1
  %187 = zext i1 %186 to i8
  store i8 %187, ptr %8, align 1
  br label %188

188:                                              ; preds = %184
  br label %189

189:                                              ; preds = %188
  store i32 -1, ptr %7, align 4
  br label %250

190:                                              ; No predecessors!
  br label %191

191:                                              ; preds = %190
  br label %192

192:                                              ; preds = %191, %172
  %193 = load ptr, ptr %3, align 8
  %194 = getelementptr inbounds %struct.H5D_chk_idx_info_t, ptr %193, i32 0, i32 0
  %195 = load ptr, ptr %194, align 8
  %196 = call i32 @H5F_get_intent(ptr noundef %195)
  %197 = and i32 %196, 32
  %198 = icmp ne i32 %197, 0
  br i1 %198, label %228, label %199

199:                                              ; preds = %192
  %200 = load ptr, ptr %3, align 8
  %201 = getelementptr inbounds %struct.H5D_chk_idx_info_t, ptr %200, i32 0, i32 0
  %202 = load ptr, ptr %201, align 8
  %203 = load i64, ptr %10, align 8
  %204 = load ptr, ptr %3, align 8
  %205 = getelementptr inbounds %struct.H5D_chk_idx_info_t, ptr %204, i32 0, i32 2
  %206 = load ptr, ptr %205, align 8
  %207 = getelementptr inbounds %struct.H5O_layout_chunk_t, ptr %206, i32 0, i32 5
  %208 = load i32, ptr %207, align 4
  %209 = zext i32 %208 to i64
  %210 = call i32 @H5MF_xfree(ptr noundef %202, i32 noundef 3, i64 noundef %203, i64 noundef %209)
  %211 = icmp slt i32 %210, 0
  br i1 %211, label %212, label %227

212:                                              ; preds = %199
  br label %213

213:                                              ; preds = %212
  br label %214

214:                                              ; preds = %213
  br label %215

215:                                              ; preds = %214
  %216 = load i64, ptr @H5E_DATASET_g, align 8
  %217 = load i64, ptr @H5E_CANTFREE_g, align 8
  %218 = call i32 (ptr, ptr, i32, i64, i64, ptr, ...) @H5E_printf_stack(ptr noundef @.str.2, ptr noundef @__func__.H5D__farray_idx_remove, i32 noundef 1332, i64 noundef %216, i64 noundef %217, ptr noundef @.str.33)
  br label %219

219:                                              ; preds = %215
  store i8 1, ptr %8, align 1
  %220 = load i8, ptr %8, align 1
  %221 = trunc i8 %220 to i1
  %222 = zext i1 %221 to i8
  store i8 %222, ptr %8, align 1
  br label %223

223:                                              ; preds = %219
  br label %224

224:                                              ; preds = %223
  store i32 -1, ptr %7, align 4
  br label %250

225:                                              ; No predecessors!
  br label %226

226:                                              ; preds = %225
  br label %227

227:                                              ; preds = %226, %199
  br label %228

228:                                              ; preds = %227, %192
  store i64 -1, ptr %10, align 8
  %229 = load ptr, ptr %5, align 8
  %230 = load i64, ptr %6, align 8
  %231 = call i32 @H5FA_set(ptr noundef %229, i64 noundef %230, ptr noundef %10)
  %232 = icmp slt i32 %231, 0
  br i1 %232, label %233, label %248

233:                                              ; preds = %228
  br label %234

234:                                              ; preds = %233
  br label %235

235:                                              ; preds = %234
  br label %236

236:                                              ; preds = %235
  %237 = load i64, ptr @H5E_DATASET_g, align 8
  %238 = load i64, ptr @H5E_CANTSET_g, align 8
  %239 = call i32 (ptr, ptr, i32, i64, i64, ptr, ...) @H5E_printf_stack(ptr noundef @.str.2, ptr noundef @__func__.H5D__farray_idx_remove, i32 noundef 1338, i64 noundef %237, i64 noundef %238, ptr noundef @.str.35)
  br label %240

240:                                              ; preds = %236
  store i8 1, ptr %8, align 1
  %241 = load i8, ptr %8, align 1
  %242 = trunc i8 %241 to i1
  %243 = zext i1 %242 to i8
  store i8 %243, ptr %8, align 1
  br label %244

244:                                              ; preds = %240
  br label %245

245:                                              ; preds = %244
  store i32 -1, ptr %7, align 4
  br label %250

246:                                              ; No predecessors!
  br label %247

247:                                              ; preds = %246
  br label %248

248:                                              ; preds = %247, %228
  br label %249

249:                                              ; preds = %248, %171
  br label %250

250:                                              ; preds = %249, %245, %224, %189, %168, %144, %111, %62, %34
  %251 = load i32, ptr %7, align 4
  ret i32 %251
}