; Function Attrs: nounwind uwtable
define internal range(i32 -1, 1) i32 @H5D__farray_idx_remove(ptr nocapture noundef readonly %0, ptr nocapture noundef readonly %1) #1 {
  %3 = alloca %struct.H5D_farray_filt_elmt_t, align 8
  %4 = alloca i64, align 8
  %5 = getelementptr inbounds i8, ptr %0, i64 24
  %6 = load ptr, ptr %5, align 8
  %7 = getelementptr inbounds i8, ptr %6, i64 32
  %8 = load ptr, ptr %7, align 8
  %.not = icmp eq ptr %8, null
  br i1 %.not, label %9, label %16

9:                                                ; preds = %2
  %10 = tail call i32 @H5D__farray_idx_open(ptr noundef nonnull %0)
  %11 = icmp slt i32 %10, 0
  br i1 %11, label %12, label %24

12:                                               ; preds = %9
  %13 = load i64, ptr @H5E_DATASET_g, align 8
  %14 = load i64, ptr @H5E_CANTOPENOBJ_g, align 8
  %15 = tail call i32 (ptr, ptr, i32, i64, i64, ptr, ...) @H5E_printf_stack(ptr noundef nonnull @.str.2, ptr noundef nonnull @__func__.H5D__farray_idx_remove, i32 noundef 1284, i64 noundef %13, i64 noundef %14, ptr noundef nonnull @.str.20) #11
  br label %104

16:                                               ; preds = %2
  %17 = load ptr, ptr %0, align 8
  %18 = tail call i32 @H5FA_patch_file(ptr noundef nonnull %8, ptr noundef %17) #11
  %19 = icmp slt i32 %18, 0
  br i1 %19, label %20, label %24

20:                                               ; preds = %16
  %21 = load i64, ptr @H5E_DATASET_g, align 8
  %22 = load i64, ptr @H5E_CANTOPENOBJ_g, align 8
  %23 = tail call i32 (ptr, ptr, i32, i64, i64, ptr, ...) @H5E_printf_stack(ptr noundef nonnull @.str.2, ptr noundef nonnull @__func__.H5D__farray_idx_remove, i32 noundef 1288, i64 noundef %21, i64 noundef %22, ptr noundef nonnull @.str.32) #11
  br label %104

24:                                               ; preds = %16, %9
  %25 = load ptr, ptr %5, align 8
  %26 = getelementptr inbounds i8, ptr %25, i64 32
  %27 = load ptr, ptr %26, align 8
  %28 = getelementptr inbounds i8, ptr %0, i64 16
  %29 = load ptr, ptr %28, align 8
  %30 = getelementptr inbounds i8, ptr %29, i64 8
  %31 = load i32, ptr %30, align 8
  %32 = add i32 %31, -1
  %33 = getelementptr inbounds i8, ptr %29, i64 960
  %34 = getelementptr inbounds i8, ptr %1, i64 16
  %35 = load ptr, ptr %34, align 8
  %36 = tail call i64 @H5VM_array_offset_pre(i32 noundef %32, ptr noundef nonnull %33, ptr noundef %35) #11
  %37 = getelementptr inbounds i8, ptr %0, i64 8
  %38 = load ptr, ptr %37, align 8
  %39 = getelementptr inbounds i8, ptr %38, i64 56
  %40 = load i64, ptr %39, align 8
  %.not31 = icmp eq i64 %40, 0
  br i1 %.not31, label %73, label %41

41:                                               ; preds = %24
  %42 = call i32 @H5FA_get(ptr noundef %27, i64 noundef %36, ptr noundef nonnull %3) #11
  %43 = icmp slt i32 %42, 0
  br i1 %43, label %44, label %48

44:                                               ; preds = %41
  %45 = load i64, ptr @H5E_DATASET_g, align 8
  %46 = load i64, ptr @H5E_CANTGET_g, align 8
  %47 = call i32 (ptr, ptr, i32, i64, i64, ptr, ...) @H5E_printf_stack(ptr noundef nonnull @.str.2, ptr noundef nonnull @__func__.H5D__farray_idx_remove, i32 noundef 1303, i64 noundef %45, i64 noundef %46, ptr noundef nonnull @.str.26) #11
  br label %104

48:                                               ; preds = %41
  %49 = load ptr, ptr %0, align 8
  %50 = call i32 @H5F_get_intent(ptr noundef %49) #11
  %51 = and i32 %50, 32
  %.not33 = icmp eq i32 %51, 0
  br i1 %.not33, label %52, label %64

52:                                               ; preds = %48
  %53 = load ptr, ptr %0, align 8
  %54 = load i64, ptr %3, align 8
  %55 = getelementptr inbounds i8, ptr %3, i64 8
  %56 = load i32, ptr %55, align 8
  %57 = zext i32 %56 to i64
  %58 = call i32 @H5MF_xfree(ptr noundef %53, i32 noundef 3, i64 noundef %54, i64 noundef %57) #11
  %59 = icmp slt i32 %58, 0
  br i1 %59, label %60, label %64

60:                                               ; preds = %52
  %61 = load i64, ptr @H5E_DATASET_g, align 8
  %62 = load i64, ptr @H5E_CANTFREE_g, align 8
  %63 = call i32 (ptr, ptr, i32, i64, i64, ptr, ...) @H5E_printf_stack(ptr noundef nonnull @.str.2, ptr noundef nonnull @__func__.H5D__farray_idx_remove, i32 noundef 1310, i64 noundef %61, i64 noundef %62, ptr noundef nonnull @.str.33) #11
  br label %104

64:                                               ; preds = %52, %48
  store i64 -1, ptr %3, align 8
  %65 = getelementptr inbounds i8, ptr %3, i64 8
  store i32 0, ptr %65, align 8
  %66 = getelementptr inbounds i8, ptr %3, i64 12
  store i32 0, ptr %66, align 4
  %67 = call i32 @H5FA_set(ptr noundef %27, i64 noundef %36, ptr noundef nonnull %3) #11
  %68 = icmp slt i32 %67, 0
  br i1 %68, label %69, label %104

69:                                               ; preds = %64
  %70 = load i64, ptr @H5E_DATASET_g, align 8
  %71 = load i64, ptr @H5E_CANTSET_g, align 8
  %72 = call i32 (ptr, ptr, i32, i64, i64, ptr, ...) @H5E_printf_stack(ptr noundef nonnull @.str.2, ptr noundef nonnull @__func__.H5D__farray_idx_remove, i32 noundef 1318, i64 noundef %70, i64 noundef %71, ptr noundef nonnull @.str.34) #11
  br label %104

73:                                               ; preds = %24
  store i64 -1, ptr %4, align 8
  %74 = call i32 @H5FA_get(ptr noundef %27, i64 noundef %36, ptr noundef nonnull %4) #11
  %75 = icmp slt i32 %74, 0
  br i1 %75, label %76, label %80

76:                                               ; preds = %73
  %77 = load i64, ptr @H5E_DATASET_g, align 8
  %78 = load i64, ptr @H5E_CANTGET_g, align 8
  %79 = call i32 (ptr, ptr, i32, i64, i64, ptr, ...) @H5E_printf_stack(ptr noundef nonnull @.str.2, ptr noundef nonnull @__func__.H5D__farray_idx_remove, i32 noundef 1325, i64 noundef %77, i64 noundef %78, ptr noundef nonnull @.str.27) #11
  br label %104

80:                                               ; preds = %73
  %81 = load ptr, ptr %0, align 8
  %82 = call i32 @H5F_get_intent(ptr noundef %81) #11
  %83 = and i32 %82, 32
  %.not32 = icmp eq i32 %83, 0
  br i1 %.not32, label %84, label %97

84:                                               ; preds = %80
  %85 = load ptr, ptr %0, align 8
  %86 = load i64, ptr %4, align 8
  %87 = load ptr, ptr %28, align 8
  %88 = getelementptr inbounds i8, ptr %87, i64 148
  %89 = load i32, ptr %88, align 4
  %90 = zext i32 %89 to i64
  %91 = call i32 @H5MF_xfree(ptr noundef %85, i32 noundef 3, i64 noundef %86, i64 noundef %90) #11
  %92 = icmp slt i32 %91, 0
  br i1 %92, label %93, label %97

93:                                               ; preds = %84
  %94 = load i64, ptr @H5E_DATASET_g, align 8
  %95 = load i64, ptr @H5E_CANTFREE_g, align 8
  %96 = call i32 (ptr, ptr, i32, i64, i64, ptr, ...) @H5E_printf_stack(ptr noundef nonnull @.str.2, ptr noundef nonnull @__func__.H5D__farray_idx_remove, i32 noundef 1332, i64 noundef %94, i64 noundef %95, ptr noundef nonnull @.str.33) #11
  br label %104

97:                                               ; preds = %84, %80
  store i64 -1, ptr %4, align 8
  %98 = call i32 @H5FA_set(ptr noundef %27, i64 noundef %36, ptr noundef nonnull %4) #11
  %99 = icmp slt i32 %98, 0
  br i1 %99, label %100, label %104

100:                                              ; preds = %97
  %101 = load i64, ptr @H5E_DATASET_g, align 8
  %102 = load i64, ptr @H5E_CANTSET_g, align 8
  %103 = call i32 (ptr, ptr, i32, i64, i64, ptr, ...) @H5E_printf_stack(ptr noundef nonnull @.str.2, ptr noundef nonnull @__func__.H5D__farray_idx_remove, i32 noundef 1338, i64 noundef %101, i64 noundef %102, ptr noundef nonnull @.str.35) #11
  br label %104

104:                                              ; preds = %64, %97, %100, %93, %76, %69, %60, %44, %20, %12
  %.0 = phi i32 [ -1, %20 ], [ -1, %44 ], [ -1, %69 ], [ 0, %64 ], [ -1, %60 ], [ -1, %76 ], [ -1, %100 ], [ 0, %97 ], [ -1, %93 ], [ -1, %12 ]
  ret i32 %.0
}